; Function Attrs: mustprogress uwtable
define void @_ZN22MeshShaderRenderPlugin14refreshActionsEv(ptr noundef nonnull align 8 dereferenceable(104) %0) unnamed_addr #9 align 2 personality ptr @__gxx_personality_v0 {
  %2 = getelementptr inbounds i8, ptr %0, i64 88
  %3 = load ptr, ptr %2, align 8
  store ptr @_ZN9QListData11shared_nullE, ptr %2, align 8
  %4 = load atomic i32, ptr %3 monotonic, align 4
  switch i32 %4, label %_ZN9QtPrivate8RefCount5derefEv.exit.i.i.i [
    i32 0, label %_ZN9QtPrivate8RefCount5derefEv.exit.thread2.i.i.i
    i32 -1, label %_ZN5QListIP7QActionEaSEOS2_.exit.i
  ]

_ZN9QtPrivate8RefCount5derefEv.exit.i.i.i:        ; preds = %1
  %5 = atomicrmw sub ptr %3, i32 1 seq_cst, align 4
  %.not.i.i.i = icmp eq i32 %5, 1
  br i1 %.not.i.i.i, label %_ZN9QtPrivate8RefCount5derefEv.exit.thread2.i.i.i, label %_ZN5QListIP7QActionEaSEOS2_.exit.i

_ZN9QtPrivate8RefCount5derefEv.exit.thread2.i.i.i: ; preds = %_ZN9QtPrivate8RefCount5derefEv.exit.i.i.i, %1
  invoke void @_ZN9QListData7disposeEPNS_4DataE(ptr noundef nonnull %3)
          to label %_ZN5QListIP7QActionEaSEOS2_.exit.i unwind label %6

6:                                                ; preds = %_ZN9QtPrivate8RefCount5derefEv.exit.thread2.i.i.i
  %7 = landingpad { ptr, i32 }
          catch ptr null
  %8 = extractvalue { ptr, i32 } %7, 0
  tail call void @__clang_call_terminate(ptr %8) #23
  unreachable

_ZN5QListIP7QActionEaSEOS2_.exit.i:               ; preds = %_ZN9QtPrivate8RefCount5derefEv.exit.thread2.i.i.i, %_ZN9QtPrivate8RefCount5derefEv.exit.i.i.i, %1
  %9 = load atomic i32, ptr @_ZN9QListData11shared_nullE monotonic, align 8
  switch i32 %9, label %_ZN9QtPrivate8RefCount5derefEv.exit.i.i [
    i32 0, label %_ZN9QtPrivate8RefCount5derefEv.exit.thread2.i.i
    i32 -1, label %_ZN5QListIP7QActionE5clearEv.exit
  ]

_ZN9QtPrivate8RefCount5derefEv.exit.i.i:          ; preds = %_ZN5QListIP7QActionEaSEOS2_.exit.i
  %10 = atomicrmw sub ptr @_ZN9QListData11shared_nullE, i32 1 seq_cst, align 4
  %.not.i.i = icmp eq i32 %10, 1
  br i1 %.not.i.i, label %_ZN9QtPrivate8RefCount5derefEv.exit.thread2.i.i, label %_ZN5QListIP7QActionE5clearEv.exit

_ZN9QtPrivate8RefCount5derefEv.exit.thread2.i.i:  ; preds = %_ZN9QtPrivate8RefCount5derefEv.exit.i.i, %_ZN5QListIP7QActionEaSEOS2_.exit.i
  invoke void @_ZN9QListData7disposeEPNS_4DataE(ptr noundef nonnull @_ZN9QListData11shared_nullE)
          to label %_ZN5QListIP7QActionE5clearEv.exit unwind label %11

11:                                               ; preds = %_ZN9QtPrivate8RefCount5derefEv.exit.thread2.i.i
  %12 = landingpad { ptr, i32 }
          catch ptr null
  %13 = extractvalue { ptr, i32 } %12, 0
  tail call void @__clang_call_terminate(ptr %13) #23
  unreachable

_ZN5QListIP7QActionE5clearEv.exit:                ; preds = %_ZN5QListIP7QActionEaSEOS2_.exit.i, %_ZN9QtPrivate8RefCount5derefEv.exit.i.i, %_ZN9QtPrivate8RefCount5derefEv.exit.thread2.i.i
  %14 = getelementptr inbounds i8, ptr %0, i64 32
  %15 = getelementptr inbounds i8, ptr %0, i64 48
  %16 = load ptr, ptr %15, align 8
  invoke void @_ZNSt8_Rb_treeI7QStringSt4pairIKS0_10ShaderInfoESt10_Select1stIS4_ESt4lessIS0_ESaIS4_EE8_M_eraseEPSt13_Rb_tree_nodeIS4_E(ptr noundef nonnull align 8 dereferenceable(48) %14, ptr noundef %16)
          to label %_ZNSt3mapI7QString10ShaderInfoSt4lessIS0_ESaISt4pairIKS0_S1_EEE5clearEv.exit unwind label %17

17:                                               ; preds = %_ZN5QListIP7QActionE5clearEv.exit
  %18 = landingpad { ptr, i32 }
          catch ptr null
  %19 = extractvalue { ptr, i32 } %18, 0
  tail call void @__clang_call_terminate(ptr %19) #23
  unreachable

_ZNSt3mapI7QString10ShaderInfoSt4lessIS0_ESaISt4pairIKS0_S1_EEE5clearEv.exit: ; preds = %_ZN5QListIP7QActionE5clearEv.exit
  %20 = getelementptr inbounds i8, ptr %0, i64 40
  store ptr null, ptr %15, align 8
  %21 = getelementptr inbounds i8, ptr %0, i64 56
  store ptr %20, ptr %21, align 8
  %22 = getelementptr inbounds i8, ptr %0, i64 64
  store ptr %20, ptr %22, align 8
  %23 = getelementptr inbounds i8, ptr %0, i64 72
  store i64 0, ptr %23, align 8
  %24 = getelementptr inbounds i8, ptr %0, i64 80
  store i8 0, ptr %24, align 8
  %25 = getelementptr inbounds i8, ptr %0, i64 96
  store ptr null, ptr %25, align 8
  tail call void @_ZN22MeshShaderRenderPlugin14initActionListEv(ptr noundef nonnull align 8 dereferenceable(104) %0)
  ret void
}